


ARM Macro Assembler    Page 1 


    1 00000000         ;* -----------------------------------------------------
                       -----------------------
    2 00000000         ;* --  _____       ______  _____                        
                                             -
    3 00000000         ;* -- |_   _|     |  ____|/ ____|                       
                                             -
    4 00000000         ;* --   | |  _ __ | |__  | (___    Institute of Embedded
                        Systems              -
    5 00000000         ;* --   | | | '_ \|  __|  \___ \   Zurich University of 
                                             -
    6 00000000         ;* --  _| |_| | | | |____ ____) |  Applied Sciences     
                                             -
    7 00000000         ;* -- |_____|_| |_|______|_____/   8401 Winterthur, Swit
                       zerland               -
    8 00000000         ;* -----------------------------------------------------
                       -----------------------
    9 00000000         ;* --
   10 00000000         ;* -- Project     : CT1 - Lab 12
   11 00000000         ;* -- Description : Reading the User-Button as Interrupt
                        source
   12 00000000         ;* --      
   13 00000000         ;* -- $Id: main.s 5071 2020-05-08 11:54:33Z akdi $
   14 00000000         ;* --   
   15 00000000         ;* -----------------------------------------------------
                       -----------------------
   16 00000000         
   17 00000000         
   18 00000000                 IMPORT           init_measurement
   19 00000000                 IMPORT           clear_IRQ_EXTI0
   20 00000000                 IMPORT           clear_IRQ_TIM2
   21 00000000         
   22 00000000         ; ------------------------------------------------------
                       -----------------------
   23 00000000         ; -- Constants
   24 00000000         ; ------------------------------------------------------
                       -----------------------
   25 00000000         
   26 00000000                 AREA             myCode, CODE, READONLY
   27 00000000         
   28 00000000                 THUMB
   29 00000000         
   30 00000000 40020010 
                       REG_GPIOA_IDR
                               EQU              0x40020010
   31 00000000 60000100 
                       LED_15_0
                               EQU              0x60000100
   32 00000000 60000102 
                       LED_16_31
                               EQU              0x60000102
   33 00000000 60000114 
                       REG_CT_7SEG
                               EQU              0x60000114
   34 00000000 E000E100 
                       REG_SETENA0
                               EQU              0xe000e100
   35 00000000         
   36 00000000         
   37 00000000         ; ------------------------------------------------------



ARM Macro Assembler    Page 2 


                       -----------------------
   38 00000000         ; -- Main
   39 00000000         ; ------------------------------------------------------
                       -----------------------             
   40 00000000         main    PROC
   41 00000000                 EXPORT           main
   42 00000000         
   43 00000000         
   44 00000000 F7FF FFFE       BL               init_measurement
   45 00000004         
   46 00000004         ; Configure NVIC (enable interrupt channel)
   47 00000004         ; STUDENTS: To be programmed
   48 00000004 480F            LDR              R0, =REG_SETENA0
   49 00000006         ; check this number out for TIM2_IRQHandler
   50 00000006 4910            LDR              R1, =0x000000b0
   51 00000008 6001            STR              R1, [R0]
   52 0000000A         ; END: To be programmed 
   53 0000000A         
   54 0000000A         ; Initialize variables
   55 0000000A         ; STUDENTS: To be programmed 
   56 0000000A         
   57 0000000A         
   58 0000000A         ; END: To be programmed
   59 0000000A         
   60 0000000A         loop
   61 0000000A         ; Output counter on 7-seg
   62 0000000A         ; STUDENTS: To be programmed
   63 0000000A 4810            LDR              R0, =counter
   64 0000000C 6801            LDR              R1, [R0]
   65 0000000E 4810            LDR              R0, =REG_CT_7SEG
   66 00000010 6001            STR              R1, [R0]
   67 00000012         
   68 00000012         ; END: To be programmed
   69 00000012         
   70 00000012 E7FA            B                loop
   71 00000014         
   72 00000014         
   73 00000014                 ENDP
   74 00000014         
   75 00000014         
   76 00000014         ; ------------------------------------------------------
                       -----------------------
   77 00000014         ; Handler for EXTI0 interrupt
   78 00000014         ; ------------------------------------------------------
                       -----------------------
   79 00000014         ; STUDENTS: To be programmed
   80 00000014         EXTI0_IRQHandler
                               PROC
   81 00000014                 EXPORT           EXTI0_IRQHandler
   82 00000014         
   83 00000014 B500            PUSH             {LR}
   84 00000016         
   85 00000016 480F            LDR              R0, =temp
   86 00000018 6801            LDR              R1, [R0]
   87 0000001A 3101            ADDS             R1, 0x01
   88 0000001C 6001            STR              R1, [R0]
   89 0000001E F7FF FFFE       BL               clear_IRQ_EXTI0
   90 00000022         
   91 00000022 BD00            POP              {PC}



ARM Macro Assembler    Page 3 


   92 00000024                 ENDP
   93 00000024         
   94 00000024         ; END: To be programmed
   95 00000024         
   96 00000024         
   97 00000024         ; ------------------------------------------------------
                       -----------------------                   
   98 00000024         ; Handler for TIM2 interrupt
   99 00000024         ; ------------------------------------------------------
                       -----------------------
  100 00000024         ; STUDENTS: To be programmed
  101 00000024         TIM2_IRQHandler
                               PROC
  102 00000024                 EXPORT           TIM2_IRQHandler
  103 00000024         
  104 00000024 B500            PUSH             {LR}
  105 00000026         
  106 00000026 480C            LDR              R0, =LED_16_31
  107 00000028 6801            LDR              R1, [R0]
  108 0000002A 4A0C            LDR              R2, =0xFFFF
  109 0000002C         ; exclusie OR wird gemacht damit man einen 2sek interval
                       l auf der LED simulieren kann
  110 0000002C 4051            EORS             R1, R1, R2
  111 0000002E 6001            STR              R1, [R0]
  112 00000030         
  113 00000030         ; hier wird die value vom counter auf die temp variable 
                       gespeichert, weil alle 2 sek der counter wieder auf 0 ge
                       setzt wird
  114 00000030 4806            LDR              R0, =counter
  115 00000032 4908            LDR              R1, =temp
  116 00000034 6803            LDR              R3, [R0]
  117 00000036         ; damit der counter auf 0 gesetzt wird
  118 00000036 4A0A            LDR              R2, =0x00
  119 00000038         ; counter wert wird in die temporaere variable gespeiche
                       rt
  120 00000038 600B            STR              R3, [R1]
  121 0000003A 6002            STR              R2, [R0]
  122 0000003C         
  123 0000003C F7FF FFFE       BL               clear_IRQ_TIM2
  124 00000040         
  125 00000040 BD00            POP              {PC}
  126 00000042         
  127 00000042                 ENDP
  128 00000042         
  129 00000042         ; END: To be programmed
  130 00000042 00 00           ALIGN
  131 00000044         
  132 00000044         ; ------------------------------------------------------
                       -----------------------
  133 00000044         ; -- Variables
  134 00000044         ; ------------------------------------------------------
                       -----------------------
  135 00000044         
  136 00000044 E000E100 
              000000B0 
              00000000 
              60000114 
              00000000 
              60000102 



ARM Macro Assembler    Page 4 


              0000FFFF 
              00000000 
              00000000 
              00000000         AREA             myVars, DATA, READWRITE
  137 00000000         
  138 00000000         ; STUDENTS: To be programmed
  139 00000000 00000000 
                       counter DCD              0x00000000
  140 00000004 00000000 
                       temp    DCD              0x00000000
  141 00000008         ; END: To be programmed
  142 00000008         
  143 00000008         
  144 00000008         ; ------------------------------------------------------
                       -----------------------
  145 00000008         ; -- End of file
  146 00000008         ; ------------------------------------------------------
                       -----------------------
  147 00000008                 END
Command Line: --debug --xref --diag_suppress=9931 --cpu=Cortex-M0 --apcs=interw
ork --depend=.\build\main.d -o.\build\main.o -I.\RTE\_Target_1 -I"C:\Users\Luca
 Archidiacono\AppData\Local\Arm\Packs\InES\CTBoard14_DFP\4.0.2\Device\Include" 
-I"C:\Users\Luca Archidiacono\AppData\Local\Arm\Packs\InES\CTBoard14_DFP\4.0.2\
Device\Include\m0" -I"C:\Users\Luca Archidiacono\AppData\Local\Arm\Packs\InES\C
TBoard14_DFP\4.0.2\HAL\Include" --predefine="__EVAL SETA 1" --predefine="__UVIS
ION_VERSION SETA 536" --predefine="_RTE_ SETA 1" --predefine="_RTE_ SETA 1" --l
ist=.\build\main.lst app\main.s



ARM Macro Assembler    Page 1 Alphabetic symbol ordering
Relocatable symbols

EXTI0_IRQHandler 00000014

Symbol: EXTI0_IRQHandler
   Definitions
      At line 80 in file app\main.s
   Uses
      At line 81 in file app\main.s
Comment: EXTI0_IRQHandler used once
TIM2_IRQHandler 00000024

Symbol: TIM2_IRQHandler
   Definitions
      At line 101 in file app\main.s
   Uses
      At line 102 in file app\main.s
Comment: TIM2_IRQHandler used once
loop 0000000A

Symbol: loop
   Definitions
      At line 60 in file app\main.s
   Uses
      At line 70 in file app\main.s
Comment: loop used once
main 00000000

Symbol: main
   Definitions
      At line 40 in file app\main.s
   Uses
      At line 41 in file app\main.s
Comment: main used once
myCode 00000000

Symbol: myCode
   Definitions
      At line 26 in file app\main.s
   Uses
      None
Comment: myCode unused
5 symbols



ARM Macro Assembler    Page 1 Alphabetic symbol ordering
Relocatable symbols

counter 00000000

Symbol: counter
   Definitions
      At line 139 in file app\main.s
   Uses
      At line 63 in file app\main.s
      At line 114 in file app\main.s

myVars 00000000

Symbol: myVars
   Definitions
      At line 136 in file app\main.s
   Uses
      None
Comment: myVars unused
temp 00000004

Symbol: temp
   Definitions
      At line 140 in file app\main.s
   Uses
      At line 85 in file app\main.s
      At line 115 in file app\main.s

3 symbols



ARM Macro Assembler    Page 1 Alphabetic symbol ordering
Absolute symbols

LED_15_0 60000100

Symbol: LED_15_0
   Definitions
      At line 31 in file app\main.s
   Uses
      None
Comment: LED_15_0 unused
LED_16_31 60000102

Symbol: LED_16_31
   Definitions
      At line 32 in file app\main.s
   Uses
      At line 106 in file app\main.s
Comment: LED_16_31 used once
REG_CT_7SEG 60000114

Symbol: REG_CT_7SEG
   Definitions
      At line 33 in file app\main.s
   Uses
      At line 65 in file app\main.s
Comment: REG_CT_7SEG used once
REG_GPIOA_IDR 40020010

Symbol: REG_GPIOA_IDR
   Definitions
      At line 30 in file app\main.s
   Uses
      None
Comment: REG_GPIOA_IDR unused
REG_SETENA0 E000E100

Symbol: REG_SETENA0
   Definitions
      At line 34 in file app\main.s
   Uses
      At line 48 in file app\main.s
Comment: REG_SETENA0 used once
5 symbols



ARM Macro Assembler    Page 1 Alphabetic symbol ordering
External symbols

clear_IRQ_EXTI0 00000000

Symbol: clear_IRQ_EXTI0
   Definitions
      At line 19 in file app\main.s
   Uses
      At line 89 in file app\main.s
Comment: clear_IRQ_EXTI0 used once
clear_IRQ_TIM2 00000000

Symbol: clear_IRQ_TIM2
   Definitions
      At line 20 in file app\main.s
   Uses
      At line 123 in file app\main.s
Comment: clear_IRQ_TIM2 used once
init_measurement 00000000

Symbol: init_measurement
   Definitions
      At line 18 in file app\main.s
   Uses
      At line 44 in file app\main.s
Comment: init_measurement used once
3 symbols
351 symbols in table
